Certificate:
    Data:
        Version: 3 (0x2)
        Serial Number: 4096 (0x1000)
    Signature Algorithm: sha256WithRSAEncryption
        Issuer: C=US, ST=NY, L=Syracuse, O=CSE644VPN_YangHe, OU=VPN_CA_YangHe, CN=vpnlabca-he.com/emailAddress=yanghe
        Validity
            Not Before: Apr 15 22:01:27 2019 GMT
            Not After : Apr 14 22:01:27 2020 GMT
        Subject: C=US, ST=NY, L=Syracuse, O=CSE644VPN_YangHe, OU=VPN_SERVER_YangHe, CN=vpnlabserver-he.com/emailAddress=YangHe
        Subject Public Key Info:
            Public Key Algorithm: rsaEncryption
                Public-Key: (2048 bit)
                Modulus:
                    00:c2:9f:34:aa:e5:84:98:b0:29:c5:93:e8:a6:e1:
                    a4:23:d5:d1:8b:8a:7e:80:cb:0e:c1:b2:a4:93:33:
                    98:45:b0:50:e4:9e:0d:8e:ef:73:f2:27:94:7e:5b:
                    d6:52:e5:9c:b4:cd:51:38:94:87:0f:4c:2b:40:14:
                    b0:40:cb:82:8b:50:d0:bb:cd:93:b4:39:11:d0:71:
                    71:be:22:bf:70:b1:7d:2f:95:55:0b:49:13:f4:14:
                    69:cb:82:8d:9a:0e:aa:80:1e:84:2b:0c:be:9a:69:
                    32:63:ef:0a:a1:4b:9b:01:1a:d5:cc:c0:cc:ab:d3:
                    96:1c:bf:34:4a:8f:0e:87:64:48:5b:8c:bf:8e:4a:
                    8e:4f:fe:b6:2f:0e:26:0b:78:12:e5:6d:4d:ff:0e:
                    2a:ac:ef:31:d5:40:6c:a6:42:20:d3:8d:e0:1b:d8:
                    8a:61:74:5c:3f:a9:f4:6b:84:27:d6:c7:43:48:6a:
                    46:d0:52:46:5f:e1:b1:48:61:33:be:d2:3a:c8:50:
                    f9:f0:fa:78:e2:a7:58:35:e3:00:ff:38:76:5b:38:
                    78:cd:51:cf:05:ec:1f:db:31:f7:54:28:0e:d8:01:
                    66:3d:e8:b4:73:75:b2:39:10:2a:79:bc:ae:56:29:
                    13:57:18:df:42:00:52:4c:5d:4a:be:5f:e6:5a:df:
                    bc:61
                Exponent: 65537 (0x10001)
        X509v3 extensions:
            X509v3 Basic Constraints: 
                CA:FALSE
            Netscape Comment: 
                OpenSSL Generated Certificate
            X509v3 Subject Key Identifier: 
                BA:94:83:D9:0F:12:85:71:1F:BD:5D:BF:1E:A3:B8:08:45:E3:14:9E
            X509v3 Authority Key Identifier: 
                keyid:A5:52:DB:BB:BE:44:2B:00:1D:0B:F6:36:4C:15:4E:A7:84:C5:61:0A

    Signature Algorithm: sha256WithRSAEncryption
         87:4a:09:3e:bc:b7:b5:51:f1:0b:30:e8:b7:78:54:da:5a:63:
         a1:68:8f:4a:af:f6:e1:6f:59:a5:d5:44:a9:40:8b:c8:7e:19:
         95:9e:00:ea:e2:e6:a5:fd:07:58:11:56:da:41:a6:5f:43:03:
         6d:cc:ac:24:e5:b4:97:a4:35:3c:c6:2f:70:3f:c0:66:fc:9e:
         a8:c4:41:e7:a7:30:16:30:d6:34:d5:e0:69:ed:e4:1d:4d:63:
         4b:a2:81:cf:59:6e:7c:27:de:d3:28:8d:18:e2:37:05:a0:e3:
         34:cb:ac:3c:1c:8c:64:78:64:27:d1:b7:c8:1d:73:83:51:f6:
         6a:99:f7:a5:d6:62:54:32:38:e9:fe:95:d1:f2:1b:a6:7f:5a:
         2c:93:1a:7e:98:95:aa:7a:a8:11:61:ac:3c:df:07:11:17:fc:
         cc:fd:80:bb:61:2c:79:b2:6f:50:75:2c:4b:d3:ac:2b:a7:bc:
         0d:8f:39:d3:f3:c1:84:1f:a6:7f:b9:8b:3d:35:50:a9:0d:8c:
         91:eb:cf:af:09:cc:db:a5:46:4b:c6:8c:74:de:b5:2e:cd:43:
         b1:3f:3a:8b:44:7d:21:82:4b:cb:27:97:62:08:01:fe:77:ba:
         3f:76:fa:5d:80:3b:b1:b7:d2:ad:f9:5a:a5:de:8c:4c:6f:92:
         7d:e0:08:65
-----BEGIN CERTIFICATE-----
MIIEIzCCAwugAwIBAgICEAAwDQYJKoZIhvcNAQELBQAwgZExCzAJBgNVBAYTAlVT
MQswCQYDVQQIDAJOWTERMA8GA1UEBwwIU3lyYWN1c2UxGTAXBgNVBAoMEENTRTY0
NFZQTl9ZYW5nSGUxFjAUBgNVBAsMDVZQTl9DQV9ZYW5nSGUxGDAWBgNVBAMMD3Zw
bmxhYmNhLWhlLmNvbTEVMBMGCSqGSIb3DQEJARYGeWFuZ2hlMB4XDTE5MDQxNTIy
MDEyN1oXDTIwMDQxNDIyMDEyN1owgZkxCzAJBgNVBAYTAlVTMQswCQYDVQQIDAJO
WTERMA8GA1UEBwwIU3lyYWN1c2UxGTAXBgNVBAoMEENTRTY0NFZQTl9ZYW5nSGUx
GjAYBgNVBAsMEVZQTl9TRVJWRVJfWWFuZ0hlMRwwGgYDVQQDDBN2cG5sYWJzZXJ2
ZXItaGUuY29tMRUwEwYJKoZIhvcNAQkBFgZZYW5nSGUwggEiMA0GCSqGSIb3DQEB
AQUAA4IBDwAwggEKAoIBAQDCnzSq5YSYsCnFk+im4aQj1dGLin6Ayw7BsqSTM5hF
sFDkng2O73PyJ5R+W9ZS5Zy0zVE4lIcPTCtAFLBAy4KLUNC7zZO0ORHQcXG+Ir9w
sX0vlVULSRP0FGnLgo2aDqqAHoQrDL6aaTJj7wqhS5sBGtXMwMyr05YcvzRKjw6H
ZEhbjL+OSo5P/rYvDiYLeBLlbU3/Diqs7zHVQGymQiDTjeAb2IphdFw/qfRrhCfW
x0NIakbQUkZf4bFIYTO+0jrIUPnw+njip1g14wD/OHZbOHjNUc8F7B/bMfdUKA7Y
AWY96LRzdbI5ECp5vK5WKRNXGN9CAFJMXUq+X+Za37xhAgMBAAGjezB5MAkGA1Ud
EwQCMAAwLAYJYIZIAYb4QgENBB8WHU9wZW5TU0wgR2VuZXJhdGVkIENlcnRpZmlj
YXRlMB0GA1UdDgQWBBS6lIPZDxKFcR+9Xb8eo7gIReMUnjAfBgNVHSMEGDAWgBSl
Utu7vkQrAB0L9jZMFU6nhMVhCjANBgkqhkiG9w0BAQsFAAOCAQEAh0oJPry3tVHx
CzDot3hU2lpjoWiPSq/24W9ZpdVEqUCLyH4ZlZ4A6uLmpf0HWBFW2kGmX0MDbcys
JOW0l6Q1PMYvcD/AZvyeqMRB56cwFjDWNNXgae3kHU1jS6KBz1lufCfe0yiNGOI3
BaDjNMusPByMZHhkJ9G3yB1zg1H2apn3pdZiVDI46f6V0fIbpn9aLJMafpiVqnqo
EWGsPN8HERf8zP2Au2EsebJvUHUsS9OsK6e8DY850/PBhB+mf7mLPTVQqQ2MkevP
rwnM26VGS8aMdN61Ls1DsT86i0R9IYJLyyeXYggB/ne6P3b6XYA7sbfSrflapd6M
TG+SfeAIZQ==
-----END CERTIFICATE-----
